; Function Attrs: nounwind uwtable
define hidden range(i32 -1, 1) i32 @_PyObjectDict_SetItem(ptr noundef readnone captures(none) %0, ptr noundef readonly captures(none) %1, ptr noundef captures(none) %2, ptr noundef %3, ptr noundef %4) local_unnamed_addr #0 {
  %6 = tail call fastcc ptr @ensure_nonmanaged_dict(ptr noundef %1, ptr noundef %2)
  %7 = icmp eq ptr %6, null
  br i1 %7, label %_PyDict_SetItem_LockHeld.exit, label %8

8:                                                ; preds = %5
  %9 = icmp eq ptr %4, null
  br i1 %9, label %10, label %18

10:                                               ; preds = %8
  %11 = getelementptr i8, ptr %3, i64 8
  %.val.i.i = load ptr, ptr %11, align 8, !tbaa !25
  %.not.i.i = icmp eq ptr %.val.i.i, @PyUnicode_Type
  br i1 %.not.i.i, label %12, label %_PyObject_HashFast.exit.i

12:                                               ; preds = %10
  %13 = getelementptr inbounds nuw i8, ptr %3, i64 24
  %14 = load i64, ptr %13, align 8, !tbaa !55
  %.not7.not.i.i = icmp eq i64 %14, -1
  br i1 %.not7.not.i.i, label %_PyObject_HashFast.exit.i, label %_PyObject_HashFast.exit.thread.i

_PyObject_HashFast.exit.i:                        ; preds = %12, %10
  %15 = tail call i64 @PyObject_Hash(ptr noundef nonnull %3) #23
  %16 = icmp eq i64 %15, -1
  br i1 %16, label %_PyDict_SetItem_LockHeld.exit, label %_PyObject_HashFast.exit.thread.i

_PyObject_HashFast.exit.thread.i:                 ; preds = %_PyObject_HashFast.exit.i, %12
  %.1.i12.i = phi i64 [ %15, %_PyObject_HashFast.exit.i ], [ %14, %12 ]
  %17 = tail call fastcc i32 @delitem_knownhash_lock_held(ptr noundef nonnull %6, ptr noundef nonnull %3, i64 noundef %.1.i12.i)
  br label %_PyDict_SetItem_LockHeld.exit

18:                                               ; preds = %8
  %19 = load i32, ptr %3, align 8, !tbaa !41
  %20 = icmp slt i32 %19, 0
  br i1 %20, label %_Py_NewRef.exit.i.i, label %21

21:                                               ; preds = %18
  %22 = add nuw i32 %19, 1
  store i32 %22, ptr %3, align 8, !tbaa !41
  br label %_Py_NewRef.exit.i.i

_Py_NewRef.exit.i.i:                              ; preds = %21, %18
  %23 = load i32, ptr %4, align 8, !tbaa !41
  %24 = icmp slt i32 %23, 0
  br i1 %24, label %setitem_lock_held.exit.i, label %25

25:                                               ; preds = %_Py_NewRef.exit.i.i
  %26 = add nuw i32 %23, 1
  store i32 %26, ptr %4, align 8, !tbaa !41
  br label %setitem_lock_held.exit.i

setitem_lock_held.exit.i:                         ; preds = %25, %_Py_NewRef.exit.i.i
  %27 = tail call fastcc range(i32 -1, 1) i32 @setitem_take2_lock_held(ptr noundef nonnull %6, ptr noundef nonnull %3, ptr noundef nonnull %4)
  br label %_PyDict_SetItem_LockHeld.exit

_PyDict_SetItem_LockHeld.exit:                    ; preds = %setitem_lock_held.exit.i, %_PyObject_HashFast.exit.thread.i, %_PyObject_HashFast.exit.i, %5
  %.0 = phi i32 [ -1, %5 ], [ %27, %setitem_lock_held.exit.i ], [ %17, %_PyObject_HashFast.exit.thread.i ], [ -1, %_PyObject_HashFast.exit.i ]
  ret i32 %.0
}